target datalayout = "e-m:e-p270:32:32-p271:32:32-p272:64:64-i64:64-i128:128-f80:128-n8:16:32:64-S128"
target triple = "x86_64-pc-linux-gnu"

%struct.MetadataPayload = type { ptr, i64 }

@stderr = external global ptr, align 8
@.str.10 = private unnamed_addr constant [51 x i8] c"Malformed raw profile, expected '\\n' got '\\x%.2X'\0A\00", align 1

; Function Attrs: nounwind uwtable
define internal ptr @HexStringToBytes(ptr noundef %0, i64 noundef %1) #0 {
  %3 = alloca ptr, align 8
  %4 = alloca ptr, align 8
  %5 = alloca i64, align 8
  %6 = alloca ptr, align 8
  %7 = alloca i64, align 8
  %8 = alloca ptr, align 8
  %9 = alloca ptr, align 8
  %10 = alloca i32, align 4
  %11 = alloca ptr, align 8
  %12 = alloca [3 x i8], align 1
  store ptr %0, ptr %4, align 8, !tbaa !4
  store i64 %1, ptr %5, align 8, !tbaa !9
  call void @llvm.lifetime.start.p0(i64 8, ptr %6) #11
  %13 = load ptr, ptr %4, align 8, !tbaa !4
  store ptr %13, ptr %6, align 8, !tbaa !4
  call void @llvm.lifetime.start.p0(i64 8, ptr %7) #11
  store i64 0, ptr %7, align 8, !tbaa !9
  call void @llvm.lifetime.start.p0(i64 8, ptr %8) #11
  %14 = load i64, ptr %5, align 8, !tbaa !9
  %15 = call noalias ptr @malloc(i64 noundef %14) #13
  store ptr %15, ptr %8, align 8, !tbaa !4
  call void @llvm.lifetime.start.p0(i64 8, ptr %9) #11
  %16 = load ptr, ptr %8, align 8, !tbaa !4
  %17 = icmp eq ptr %16, null
  br i1 %17, label %18, label %19

18:                                               ; preds = %2
  store ptr null, ptr %3, align 8
  store i32 1, ptr %10, align 4
  br label %74

19:                                               ; preds = %2
  %20 = load ptr, ptr %8, align 8, !tbaa !4
  store ptr %20, ptr %9, align 8, !tbaa !4
  br label %21

21:                                               ; preds = %63, %19
  %22 = load i64, ptr %7, align 8, !tbaa !9
  %23 = load i64, ptr %5, align 8, !tbaa !9
  %24 = icmp ult i64 %22, %23
  br i1 %24, label %25, label %30

25:                                               ; preds = %21
  %26 = load ptr, ptr %6, align 8, !tbaa !4
  %27 = load i8, ptr %26, align 1, !tbaa !57
  %28 = sext i8 %27 to i32
  %29 = icmp ne i32 %28, 0
  br label %30

30:                                               ; preds = %25, %21
  %31 = phi i1 [ false, %21 ], [ %29, %25 ]
  br i1 %31, label %32, label %66

32:                                               ; preds = %30
  call void @llvm.lifetime.start.p0(i64 8, ptr %11) #11
  call void @llvm.lifetime.start.p0(i64 3, ptr %12) #11
  %33 = load ptr, ptr %6, align 8, !tbaa !4
  %34 = load i8, ptr %33, align 1, !tbaa !57
  %35 = sext i8 %34 to i32
  %36 = icmp eq i32 %35, 10
  br i1 %36, label %37, label %38

37:                                               ; preds = %32
  store i32 4, ptr %10, align 4
  br label %60

38:                                               ; preds = %32
  %39 = load ptr, ptr %6, align 8, !tbaa !4
  %40 = getelementptr inbounds nuw i8, ptr %39, i32 1
  store ptr %40, ptr %6, align 8, !tbaa !4
  %41 = load i8, ptr %39, align 1, !tbaa !57
  %42 = getelementptr inbounds [3 x i8], ptr %12, i64 0, i64 0
  store i8 %41, ptr %42, align 1, !tbaa !57
  %43 = load ptr, ptr %6, align 8, !tbaa !4
  %44 = load i8, ptr %43, align 1, !tbaa !57
  %45 = getelementptr inbounds [3 x i8], ptr %12, i64 0, i64 1
  store i8 %44, ptr %45, align 1, !tbaa !57
  %46 = getelementptr inbounds [3 x i8], ptr %12, i64 0, i64 2
  store i8 0, ptr %46, align 1, !tbaa !57
  %47 = getelementptr inbounds [3 x i8], ptr %12, i64 0, i64 0
  %48 = call i64 @strtol(ptr noundef %47, ptr noundef %11, i32 noundef 16) #11
  %49 = trunc i64 %48 to i8
  %50 = load ptr, ptr %9, align 8, !tbaa !4
  %51 = getelementptr inbounds nuw i8, ptr %50, i32 1
  store ptr %51, ptr %9, align 8, !tbaa !4
  store i8 %49, ptr %50, align 1, !tbaa !57
  %52 = load ptr, ptr %11, align 8, !tbaa !4
  %53 = getelementptr inbounds [3 x i8], ptr %12, i64 0, i64 0
  %54 = getelementptr inbounds i8, ptr %53, i64 2
  %55 = icmp ne ptr %52, %54
  br i1 %55, label %56, label %57

56:                                               ; preds = %38
  store i32 2, ptr %10, align 4
  br label %60

57:                                               ; preds = %38
  %58 = load i64, ptr %7, align 8, !tbaa !9
  %59 = add i64 %58, 1
  store i64 %59, ptr %7, align 8, !tbaa !9
  store i32 0, ptr %10, align 4
  br label %60

60:                                               ; preds = %57, %56, %37
  call void @llvm.lifetime.end.p0(i64 3, ptr %12) #11
  call void @llvm.lifetime.end.p0(i64 8, ptr %11) #11
  %61 = load i32, ptr %10, align 4
  switch i32 %61, label %76 [
    i32 0, label %62
    i32 4, label %63
    i32 2, label %66
  ]

62:                                               ; preds = %60
  br label %63

63:                                               ; preds = %62, %60
  %64 = load ptr, ptr %6, align 8, !tbaa !4
  %65 = getelementptr inbounds nuw i8, ptr %64, i32 1
  store ptr %65, ptr %6, align 8, !tbaa !4
  br label %21, !llvm.loop !60

66:                                               ; preds = %60, %30
  %67 = load i64, ptr %7, align 8, !tbaa !9
  %68 = load i64, ptr %5, align 8, !tbaa !9
  %69 = icmp ne i64 %67, %68
  br i1 %69, label %70, label %72

70:                                               ; preds = %66
  %71 = load ptr, ptr %8, align 8, !tbaa !4
  call void @free(ptr noundef %71) #11
  store ptr null, ptr %3, align 8
  store i32 1, ptr %10, align 4
  br label %74

72:                                               ; preds = %66
  %73 = load ptr, ptr %8, align 8, !tbaa !4
  store ptr %73, ptr %3, align 8
  store i32 1, ptr %10, align 4
  br label %74

74:                                               ; preds = %72, %70, %18
  call void @llvm.lifetime.end.p0(i64 8, ptr %9) #11
  call void @llvm.lifetime.end.p0(i64 8, ptr %8) #11
  call void @llvm.lifetime.end.p0(i64 8, ptr %7) #11
  call void @llvm.lifetime.end.p0(i64 8, ptr %6) #11
  %75 = load ptr, ptr %3, align 8
  ret ptr %75

76:                                               ; preds = %60
  unreachable
}

; Function Attrs: nounwind uwtable
define internal i32 @ProcessRawProfile(ptr noundef %0, i64 noundef %1, ptr noundef %2) #0 {
  %4 = alloca i32, align 4
  %5 = alloca ptr, align 8
  %6 = alloca i64, align 8
  %7 = alloca ptr, align 8
  %8 = alloca ptr, align 8
  %9 = alloca ptr, align 8
  %10 = alloca i32, align 4
  %11 = alloca i32, align 4
  store ptr %0, ptr %5, align 8, !tbaa !4
  store i64 %1, ptr %6, align 8, !tbaa !9
  store ptr %2, ptr %7, align 8, !tbaa !45
  call void @llvm.lifetime.start.p0(i64 8, ptr %8) #11
  %12 = load ptr, ptr %5, align 8, !tbaa !4
  store ptr %12, ptr %8, align 8, !tbaa !4
  call void @llvm.lifetime.start.p0(i64 8, ptr %9) #11
  call void @llvm.lifetime.start.p0(i64 4, ptr %10) #11
  %13 = load ptr, ptr %5, align 8, !tbaa !4
  %14 = icmp eq ptr %13, null
  br i1 %14, label %18, label %15

15:                                               ; preds = %3
  %16 = load i64, ptr %6, align 8, !tbaa !9
  %17 = icmp eq i64 %16, 0
  br i1 %17, label %18, label %19

18:                                               ; preds = %15, %3
  store i32 0, ptr %4, align 4
  store i32 1, ptr %11, align 4
  br label %80

19:                                               ; preds = %15
  %20 = load ptr, ptr %8, align 8, !tbaa !4
  %21 = load i8, ptr %20, align 1, !tbaa !57
  %22 = sext i8 %21 to i32
  %23 = icmp ne i32 %22, 10
  br i1 %23, label %24, label %30

24:                                               ; preds = %19
  %25 = load ptr, ptr @stderr, align 8, !tbaa !29
  %26 = load ptr, ptr %8, align 8, !tbaa !4
  %27 = load i8, ptr %26, align 1, !tbaa !57
  %28 = sext i8 %27 to i32
  %29 = call i32 (ptr, ptr, ...) @fprintf(ptr noundef %25, ptr noundef @.str.10, i32 noundef %28) #11
  store i32 0, ptr %4, align 4
  store i32 1, ptr %11, align 4
  br label %80

30:                                               ; preds = %19
  %31 = load ptr, ptr %8, align 8, !tbaa !4
  %32 = getelementptr inbounds nuw i8, ptr %31, i32 1
  store ptr %32, ptr %8, align 8, !tbaa !4
  br label %33

33:                                               ; preds = %46, %30
  %34 = load ptr, ptr %8, align 8, !tbaa !4
  %35 = load i8, ptr %34, align 1, !tbaa !57
  %36 = sext i8 %35 to i32
  %37 = icmp ne i32 %36, 0
  br i1 %37, label %38, label %44

38:                                               ; preds = %33
  %39 = load ptr, ptr %8, align 8, !tbaa !4
  %40 = getelementptr inbounds nuw i8, ptr %39, i32 1
  store ptr %40, ptr %8, align 8, !tbaa !4
  %41 = load i8, ptr %39, align 1, !tbaa !57
  %42 = sext i8 %41 to i32
  %43 = icmp ne i32 %42, 10
  br label %44

44:                                               ; preds = %38, %33
  %45 = phi i1 [ false, %33 ], [ %43, %38 ]
  br i1 %45, label %46, label %47

46:                                               ; preds = %44
  br label %33, !llvm.loop !58

47:                                               ; preds = %44
  %48 = load ptr, ptr %8, align 8, !tbaa !4
  %49 = call i64 @strtol(ptr noundef %48, ptr noundef %9, i32 noundef 10) #11
  %50 = trunc i64 %49 to i32
  store i32 %50, ptr %10, align 4, !tbaa !13
  %51 = load ptr, ptr %9, align 8, !tbaa !4
  %52 = load i8, ptr %51, align 1, !tbaa !57
  %53 = sext i8 %52 to i32
  %54 = icmp ne i32 %53, 10
  br i1 %54, label %55, label %61

55:                                               ; preds = %47
  %56 = load ptr, ptr @stderr, align 8, !tbaa !29
  %57 = load ptr, ptr %9, align 8, !tbaa !4
  %58 = load i8, ptr %57, align 1, !tbaa !57
  %59 = sext i8 %58 to i32
  %60 = call i32 (ptr, ptr, ...) @fprintf(ptr noundef %56, ptr noundef @.str.10, i32 noundef %59) #11
  store i32 0, ptr %4, align 4
  store i32 1, ptr %11, align 4
  br label %80

61:                                               ; preds = %47
  %62 = load ptr, ptr %9, align 8, !tbaa !4
  %63 = getelementptr inbounds nuw i8, ptr %62, i32 1
  store ptr %63, ptr %9, align 8, !tbaa !4
  %64 = load ptr, ptr %9, align 8, !tbaa !4
  %65 = load i32, ptr %10, align 4, !tbaa !13
  %66 = sext i32 %65 to i64
  %67 = call ptr @HexStringToBytes(ptr noundef %64, i64 noundef %66)
  %68 = load ptr, ptr %7, align 8, !tbaa !45
  %69 = getelementptr inbounds nuw %struct.MetadataPayload, ptr %68, i32 0, i32 0
  store ptr %67, ptr %69, align 8, !tbaa !50
  %70 = load ptr, ptr %7, align 8, !tbaa !45
  %71 = getelementptr inbounds nuw %struct.MetadataPayload, ptr %70, i32 0, i32 0
  %72 = load ptr, ptr %71, align 8, !tbaa !50
  %73 = icmp eq ptr %72, null
  br i1 %73, label %74, label %75

74:                                               ; preds = %61
  store i32 0, ptr %4, align 4
  store i32 1, ptr %11, align 4
  br label %80

75:                                               ; preds = %61
  %76 = load i32, ptr %10, align 4, !tbaa !13
  %77 = sext i32 %76 to i64
  %78 = load ptr, ptr %7, align 8, !tbaa !45
  %79 = getelementptr inbounds nuw %struct.MetadataPayload, ptr %78, i32 0, i32 1
  store i64 %77, ptr %79, align 8, !tbaa !59
  store i32 1, ptr %4, align 4
  store i32 1, ptr %11, align 4
  br label %80

80:                                               ; preds = %75, %74, %55, %24, %18
  call void @llvm.lifetime.end.p0(i64 4, ptr %10) #11
  call void @llvm.lifetime.end.p0(i64 8, ptr %9) #11
  call void @llvm.lifetime.end.p0(i64 8, ptr %8) #11
  %81 = load i32, ptr %4, align 4
  ret i32 %81
}