; Function Attrs: nounwind uwtable
define internal range(i32 0, 2) i32 @ProcessRawProfile(ptr noundef %0, i64 noundef %1, ptr noundef writeonly captures(none) %2) #0 {
  %4 = alloca ptr, align 8
  %5 = alloca [3 x i8], align 1
  %6 = alloca ptr, align 8
  call void @llvm.lifetime.start.p0(i64 8, ptr nonnull %6) #15
  %7 = icmp eq ptr %0, null
  %8 = icmp eq i64 %1, 0
  %or.cond = or i1 %7, %8
  br i1 %or.cond, label %52, label %9

9:                                                ; preds = %3
  %10 = load i8, ptr %0, align 1, !tbaa !50
  %.not = icmp eq i8 %10, 10
  br i1 %.not, label %15, label %11

11:                                               ; preds = %9
  %12 = sext i8 %10 to i32
  %13 = load ptr, ptr @stderr, align 8, !tbaa !26
  %14 = tail call i32 (ptr, ptr, ...) @fprintf(ptr noundef %13, ptr noundef nonnull @.str.10, i32 noundef %12) #19
  br label %52

15:                                               ; preds = %9
  %16 = getelementptr inbounds nuw i8, ptr %0, i64 1
  br label %17

17:                                               ; preds = %19, %15
  %.015 = phi ptr [ %16, %15 ], [ %20, %19 ]
  %18 = load i8, ptr %.015, align 1, !tbaa !50
  %.not20 = icmp eq i8 %18, 0
  br i1 %.not20, label %.critedge, label %19

19:                                               ; preds = %17
  %20 = getelementptr inbounds nuw i8, ptr %.015, i64 1
  %.not21 = icmp eq i8 %18, 10
  br i1 %.not21, label %.critedge, label %17, !llvm.loop !51

.critedge:                                        ; preds = %17, %19
  %.1 = phi ptr [ %20, %19 ], [ %.015, %17 ]
  %21 = call i64 @strtol(ptr noundef nonnull %.1, ptr noundef nonnull %6, i32 noundef 10) #15
  %22 = load ptr, ptr %6, align 8, !tbaa !13
  %23 = load i8, ptr %22, align 1, !tbaa !50
  %.not22 = icmp eq i8 %23, 10
  br i1 %.not22, label %28, label %24

24:                                               ; preds = %.critedge
  %25 = sext i8 %23 to i32
  %26 = load ptr, ptr @stderr, align 8, !tbaa !26
  %27 = tail call i32 (ptr, ptr, ...) @fprintf(ptr noundef %26, ptr noundef nonnull @.str.10, i32 noundef %25) #19
  br label %52

28:                                               ; preds = %.critedge
  %29 = getelementptr inbounds nuw i8, ptr %22, i64 1
  store ptr %29, ptr %6, align 8, !tbaa !13
  %sext = shl i64 %21, 32
  %30 = ashr exact i64 %sext, 32
  %31 = tail call noalias ptr @malloc(i64 noundef range(i64 -2147483648, 2147483648) %30) #17
  %32 = icmp eq ptr %31, null
  br i1 %32, label %HexStringToBytes.exit.thread, label %.preheader.i

.preheader.i:                                     ; preds = %28
  %.not44.i = icmp eq i64 %sext, 0
  br i1 %.not44.i, label %.critedge.i, label %.lr.ph.i

.lr.ph.i:                                         ; preds = %.preheader.i
  %33 = getelementptr inbounds nuw i8, ptr %5, i64 1
  %34 = getelementptr inbounds nuw i8, ptr %5, i64 2
  br label %35

35:                                               ; preds = %47, %.lr.ph.i
  %.01839.i = phi ptr [ %31, %.lr.ph.i ], [ %.136.i, %47 ]
  %.02038.i = phi i64 [ 0, %.lr.ph.i ], [ %.235.i, %47 ]
  %.02237.i = phi ptr [ %29, %.lr.ph.i ], [ %48, %47 ]
  %36 = load i8, ptr %.02237.i, align 1, !tbaa !50
  %.not.i = icmp eq i8 %36, 0
  br i1 %.not.i, label %.critedge.i, label %37

37:                                               ; preds = %35
  call void @llvm.lifetime.start.p0(i64 8, ptr nonnull %4) #15
  call void @llvm.lifetime.start.p0(i64 3, ptr nonnull %5) #15
  %38 = icmp eq i8 %36, 10
  br i1 %38, label %.thread.i, label %39

.thread.i:                                        ; preds = %37
  call void @llvm.lifetime.end.p0(i64 3, ptr nonnull %5) #15
  call void @llvm.lifetime.end.p0(i64 8, ptr nonnull %4) #15
  br label %47

39:                                               ; preds = %37
  %40 = getelementptr inbounds nuw i8, ptr %.02237.i, i64 1
  store i8 %36, ptr %5, align 1, !tbaa !50
  %41 = load i8, ptr %40, align 1, !tbaa !50
  store i8 %41, ptr %33, align 1, !tbaa !50
  store i8 0, ptr %34, align 1, !tbaa !50
  %42 = call i64 @strtol(ptr noundef nonnull %5, ptr noundef nonnull %4, i32 noundef 16) #15
  %43 = trunc i64 %42 to i8
  %44 = getelementptr inbounds nuw i8, ptr %.01839.i, i64 1
  store i8 %43, ptr %.01839.i, align 1, !tbaa !50
  %45 = load ptr, ptr %4, align 8, !tbaa !13
  %.not25.i = icmp eq ptr %45, %34
  %46 = zext i1 %.not25.i to i64
  %spec.select.i = add nuw i64 %.02038.i, %46
  call void @llvm.lifetime.end.p0(i64 3, ptr nonnull %5) #15
  call void @llvm.lifetime.end.p0(i64 8, ptr nonnull %4) #15
  br i1 %.not25.i, label %47, label %.critedge.i

47:                                               ; preds = %39, %.thread.i
  %.136.i = phi ptr [ %.01839.i, %.thread.i ], [ %44, %39 ]
  %.235.i = phi i64 [ %.02038.i, %.thread.i ], [ %spec.select.i, %39 ]
  %.12334.i = phi ptr [ %.02237.i, %.thread.i ], [ %40, %39 ]
  %48 = getelementptr inbounds nuw i8, ptr %.12334.i, i64 1
  %49 = icmp ult i64 %.235.i, %30
  br i1 %49, label %35, label %.critedge.i, !llvm.loop !52

.critedge.i:                                      ; preds = %47, %39, %35, %.preheader.i
  %.121.i = phi i64 [ 0, %.preheader.i ], [ %.02038.i, %35 ], [ %.235.i, %47 ], [ %spec.select.i, %39 ]
  %.not26.i = icmp eq i64 %.121.i, %30
  br i1 %.not26.i, label %HexStringToBytes.exit, label %50

50:                                               ; preds = %.critedge.i
  call void @free(ptr noundef %31) #15
  br label %HexStringToBytes.exit.thread

HexStringToBytes.exit.thread:                     ; preds = %50, %28
  store ptr null, ptr %2, align 8, !tbaa !42
  br label %52

HexStringToBytes.exit:                            ; preds = %.critedge.i
  store ptr %31, ptr %2, align 8, !tbaa !42
  %51 = getelementptr inbounds nuw i8, ptr %2, i64 8
  store i64 %30, ptr %51, align 8, !tbaa !53
  br label %52

52:                                               ; preds = %HexStringToBytes.exit.thread, %3, %HexStringToBytes.exit, %24, %11
  %.0 = phi i32 [ 0, %11 ], [ 0, %24 ], [ 1, %HexStringToBytes.exit ], [ 0, %3 ], [ 0, %HexStringToBytes.exit.thread ]
  call void @llvm.lifetime.end.p0(i64 8, ptr nonnull %6) #15
  ret i32 %.0
}